EXPORTS
	?qt_metacall@PsUiUtils@@UAEHW4Call@QMetaObject@@HPAPAX@Z @ 1 NONAME ; int PsUiUtils::qt_metacall(enum QMetaObject::Call, int, void * *)
	?getStaticMetaObject@PsUiNotes@@SAABUQMetaObject@@XZ @ 2 NONAME ; struct QMetaObject const & PsUiNotes::getStaticMetaObject(void)
	?tr@PsUiWaitingNoteHandler@@SA?AVQString@@PBD0H@Z @ 3 NONAME ; class QString PsUiWaitingNoteHandler::tr(char const *, char const *, int)
	?tr@PsUiSettingsWrapper@@SA?AVQString@@PBD0@Z @ 4 NONAME ; class QString PsUiSettingsWrapper::tr(char const *, char const *)
	?qt_metacast@PsUiNotes@@UAEPAXPBD@Z @ 5 NONAME ; void * PsUiNotes::qt_metacast(char const *)
	?qt_metacall@PsUiSettingsWrapper@@UAEHW4Call@QMetaObject@@HPAPAX@Z @ 6 NONAME ; int PsUiSettingsWrapper::qt_metacall(enum QMetaObject::Call, int, void * *)
	?metaObject@PsUiUtils@@UBEPBUQMetaObject@@XZ @ 7 NONAME ; struct QMetaObject const * PsUiUtils::metaObject(void) const
	?passwordQueryCompleted@PsUiNotes@@IAEXVQString@@_N@Z @ 8 NONAME ; void PsUiNotes::passwordQueryCompleted(class QString, bool)
	?handleCliRequesting@PsUiCliNoteHandler@@QAEX_N0@Z @ 9 NONAME ; void PsUiCliNoteHandler::handleCliRequesting(bool, bool)
	?trUtf8@PsUiCliNoteHandler@@SA?AVQString@@PBD0H@Z @ 10 NONAME ; class QString PsUiCliNoteHandler::trUtf8(char const *, char const *, int)
	?handleProgressNoteCanceled@PsUiNotes@@AAEXXZ @ 11 NONAME ; void PsUiNotes::handleProgressNoteCanceled(void)
	?errorCodeTextMapping@PsUiUtils@@SA_NHAAVQString@@@Z @ 12 NONAME ; bool PsUiUtils::errorCodeTextMapping(int, class QString &)
	?showNotificationDialog@PsUiNotes@@QAEXABVQString@@@Z @ 13 NONAME ; void PsUiNotes::showNotificationDialog(class QString const &)
	??1PsUiDivertNoteHandler@@UAE@XZ @ 14 NONAME ; PsUiDivertNoteHandler::~PsUiDivertNoteHandler(void)
	?qt_metacall@PsUiNotes@@UAEHW4Call@QMetaObject@@HPAPAX@Z @ 15 NONAME ; int PsUiNotes::qt_metacall(enum QMetaObject::Call, int, void * *)
	??_EPsUiCliNoteHandler@@UAE@I@Z @ 16 NONAME ; PsUiCliNoteHandler::~PsUiCliNoteHandler(unsigned int)
	?handleDivertingError@PsUiDivertNoteHandler@@QAEXH@Z @ 17 NONAME ; void PsUiDivertNoteHandler::handleDivertingError(int)
	??0PsUiNotes@@AAE@XZ @ 18 NONAME ; PsUiNotes::PsUiNotes(void)
	?showPasswordQueryDialog@PsUiNotes@@QAEXABVQString@@ABVQValidator@@H@Z @ 19 NONAME ; void PsUiNotes::showPasswordQueryDialog(class QString const &, class QValidator const &, int)
	?trUtf8@PsUiNotes@@SA?AVQString@@PBD0@Z @ 20 NONAME ; class QString PsUiNotes::trUtf8(char const *, char const *)
	?getStaticMetaObject@PsUiUtils@@SAABUQMetaObject@@XZ @ 21 NONAME ; struct QMetaObject const & PsUiUtils::getStaticMetaObject(void)
	?readCenrepValue@PsUiSettingsWrapper@@ABE?AVQVariant@@JK@Z @ 22 NONAME ; class QVariant PsUiSettingsWrapper::readCenrepValue(long, unsigned long) const
	?getStaticMetaObject@PsUiDivertNoteHandler@@SAABUQMetaObject@@XZ @ 23 NONAME ; struct QMetaObject const & PsUiDivertNoteHandler::getStaticMetaObject(void)
	?isFeatureCallWaitingDistiquishNotProvisionedEnabled@PsUiSettingsWrapper@@QAE_NXZ @ 24 NONAME ; bool PsUiSettingsWrapper::isFeatureCallWaitingDistiquishNotProvisionedEnabled(void)
	??1PsUiWaitingNoteHandler@@UAE@XZ @ 25 NONAME ; PsUiWaitingNoteHandler::~PsUiWaitingNoteHandler(void)
	?formatPhoneNumber@PsUiNotes@@ABE?AVQString@@V2@@Z @ 26 NONAME ; class QString PsUiNotes::formatPhoneNumber(class QString) const
	?passwordTextChanged@PsUiNotes@@AAEXXZ @ 27 NONAME ; void PsUiNotes::passwordTextChanged(void)
	?handleCliError@PsUiCliNoteHandler@@QAEXH@Z @ 28 NONAME ; void PsUiCliNoteHandler::handleCliError(int)
	?tr@PsUiNotes@@SA?AVQString@@PBD0@Z @ 29 NONAME ; class QString PsUiNotes::tr(char const *, char const *)
	??0PsUiSettingsWrapper@@QAE@PAVQObject@@@Z @ 30 NONAME ; PsUiSettingsWrapper::PsUiSettingsWrapper(class QObject *)
	??1PsUiSettingsWrapper@@UAE@XZ @ 31 NONAME ; PsUiSettingsWrapper::~PsUiSettingsWrapper(void)
	?getStaticMetaObject@PsUiWaitingNoteHandler@@SAABUQMetaObject@@XZ @ 32 NONAME ; struct QMetaObject const & PsUiWaitingNoteHandler::getStaticMetaObject(void)
	?getStaticMetaObject@PsUiSettingsWrapper@@SAABUQMetaObject@@XZ @ 33 NONAME ; struct QMetaObject const & PsUiSettingsWrapper::getStaticMetaObject(void)
	?trUtf8@PsUiUtils@@SA?AVQString@@PBD0@Z @ 34 NONAME ; class QString PsUiUtils::trUtf8(char const *, char const *)
	?qt_metacast@PsUiWaitingNoteHandler@@UAEPAXPBD@Z @ 35 NONAME ; void * PsUiWaitingNoteHandler::qt_metacast(char const *)
	?tr@PsUiCliNoteHandler@@SA?AVQString@@PBD0@Z @ 36 NONAME ; class QString PsUiCliNoteHandler::tr(char const *, char const *)
	?finishedPasswordQueryDialog@PsUiNotes@@QAEXPAVHbAction@@@Z @ 37 NONAME ; void PsUiNotes::finishedPasswordQueryDialog(class HbAction *)
	?handleDivertingStatus@PsUiDivertNoteHandler@@QAEXAAV?$QList@PAVPSCallDivertingStatus@@@@_N@Z @ 38 NONAME ; void PsUiDivertNoteHandler::handleDivertingStatus(class QList<class PSCallDivertingStatus *> &, bool)
	??0PsUiWaitingNoteHandler@@QAE@AAVPSetCallWaitingWrapper@@@Z @ 39 NONAME ; PsUiWaitingNoteHandler::PsUiWaitingNoteHandler(class PSetCallWaitingWrapper &)
	?trUtf8@PsUiSettingsWrapper@@SA?AVQString@@PBD0H@Z @ 40 NONAME ; class QString PsUiSettingsWrapper::trUtf8(char const *, char const *, int)
	?tr@PsUiSettingsWrapper@@SA?AVQString@@PBD0H@Z @ 41 NONAME ; class QString PsUiSettingsWrapper::tr(char const *, char const *, int)
	?metaObject@PsUiCliNoteHandler@@UBEPBUQMetaObject@@XZ @ 42 NONAME ; struct QMetaObject const * PsUiCliNoteHandler::metaObject(void) const
	?tr@PsUiCliNoteHandler@@SA?AVQString@@PBD0H@Z @ 43 NONAME ; class QString PsUiCliNoteHandler::tr(char const *, char const *, int)
	?cancelNote@PsUiNotes@@QAEXH@Z @ 44 NONAME ; void PsUiNotes::cancelNote(int)
	?numberGroupingSupported@PsUiSettingsWrapper@@QBE_NXZ @ 45 NONAME ; bool PsUiSettingsWrapper::numberGroupingSupported(void) const
	?tr@PsUiUtils@@SA?AVQString@@PBD0@Z @ 46 NONAME ; class QString PsUiUtils::tr(char const *, char const *)
	?qt_metacast@PsUiSettingsWrapper@@UAEPAXPBD@Z @ 47 NONAME ; void * PsUiSettingsWrapper::qt_metacast(char const *)
	?tr@PsUiDivertNoteHandler@@SA?AVQString@@PBD0@Z @ 48 NONAME ; class QString PsUiDivertNoteHandler::tr(char const *, char const *)
	?trUtf8@PsUiWaitingNoteHandler@@SA?AVQString@@PBD0H@Z @ 49 NONAME ; class QString PsUiWaitingNoteHandler::trUtf8(char const *, char const *, int)
	?noteShowing@PsUiNotes@@QAE_NXZ @ 50 NONAME ; bool PsUiNotes::noteShowing(void)
	??_EPsUiWaitingNoteHandler@@UAE@I@Z @ 51 NONAME ; PsUiWaitingNoteHandler::~PsUiWaitingNoteHandler(unsigned int)
	?trUtf8@PsUiNotes@@SA?AVQString@@PBD0H@Z @ 52 NONAME ; class QString PsUiNotes::trUtf8(char const *, char const *, int)
	?trUtf8@PsUiCliNoteHandler@@SA?AVQString@@PBD0@Z @ 53 NONAME ; class QString PsUiCliNoteHandler::trUtf8(char const *, char const *)
	?trUtf8@PsUiDivertNoteHandler@@SA?AVQString@@PBD0@Z @ 54 NONAME ; class QString PsUiDivertNoteHandler::trUtf8(char const *, char const *)
	?handleCFRequesting@PsUiDivertNoteHandler@@QAEX_N0@Z @ 55 NONAME ; void PsUiDivertNoteHandler::handleCFRequesting(bool, bool)
	?trUtf8@PsUiDivertNoteHandler@@SA?AVQString@@PBD0H@Z @ 56 NONAME ; class QString PsUiDivertNoteHandler::trUtf8(char const *, char const *, int)
	?handleCallWaitingGetStatus@PsUiWaitingNoteHandler@@QAEXW4PsCallWaitingStatus@PSetCallWaitingWrapper@@ABV?$QList@E@@@Z @ 57 NONAME ; void PsUiWaitingNoteHandler::handleCallWaitingGetStatus(enum PSetCallWaitingWrapper::PsCallWaitingStatus, class QList<unsigned char> const &)
	?qt_metacast@PsUiCliNoteHandler@@UAEPAXPBD@Z @ 58 NONAME ; void * PsUiCliNoteHandler::qt_metacast(char const *)
	?formatActiveDivertsNoteText@PsUiNotes@@AAEXABV?$QList@PAVPSCallDivertingStatus@@@@AAVQString@@@Z @ 59 NONAME ; void PsUiNotes::formatActiveDivertsNoteText(class QList<class PSCallDivertingStatus *> const &, class QString &)
	?instance@PsUiNotes@@SAPAV1@XZ @ 60 NONAME ; class PsUiNotes * PsUiNotes::instance(void)
	?staticMetaObject@PsUiDivertNoteHandler@@2UQMetaObject@@B @ 61 NONAME ; struct QMetaObject const PsUiDivertNoteHandler::staticMetaObject
	?staticMetaObject@PsUiUtils@@2UQMetaObject@@B @ 62 NONAME ; struct QMetaObject const PsUiUtils::staticMetaObject
	?handleCallWaitingError@PsUiWaitingNoteHandler@@QAEXH@Z @ 63 NONAME ; void PsUiWaitingNoteHandler::handleCallWaitingError(int)
	?progressNoteCanceled@PsUiNotes@@IAEXXZ @ 64 NONAME ; void PsUiNotes::progressNoteCanceled(void)
	?qt_metacast@PsUiUtils@@UAEPAXPBD@Z @ 65 NONAME ; void * PsUiUtils::qt_metacast(char const *)
	?launchNextNoteIfReady@PsUiNotes@@AAEXXZ @ 66 NONAME ; void PsUiNotes::launchNextNoteIfReady(void)
	?staticMetaObject@PsUiCliNoteHandler@@2UQMetaObject@@B @ 67 NONAME ; struct QMetaObject const PsUiCliNoteHandler::staticMetaObject
	?trUtf8@PsUiWaitingNoteHandler@@SA?AVQString@@PBD0@Z @ 68 NONAME ; class QString PsUiWaitingNoteHandler::trUtf8(char const *, char const *)
	?tr@PsUiDivertNoteHandler@@SA?AVQString@@PBD0H@Z @ 69 NONAME ; class QString PsUiDivertNoteHandler::tr(char const *, char const *, int)
	?staticMetaObject@PsUiSettingsWrapper@@2UQMetaObject@@B @ 70 NONAME ; struct QMetaObject const PsUiSettingsWrapper::staticMetaObject
	?staticMetaObject@PsUiNotes@@2UQMetaObject@@B @ 71 NONAME ; struct QMetaObject const PsUiNotes::staticMetaObject
	??_EPsUiSettingsWrapper@@UAE@I@Z @ 72 NONAME ; PsUiSettingsWrapper::~PsUiSettingsWrapper(unsigned int)
	??1PsUiCliNoteHandler@@UAE@XZ @ 73 NONAME ; PsUiCliNoteHandler::~PsUiCliNoteHandler(void)
	?showCallDivertDetails@PsUiNotes@@QAEXABV?$QList@PAVPSCallDivertingStatus@@@@@Z @ 74 NONAME ; void PsUiNotes::showCallDivertDetails(class QList<class PSCallDivertingStatus *> const &)
	?trUtf8@PsUiUtils@@SA?AVQString@@PBD0H@Z @ 75 NONAME ; class QString PsUiUtils::trUtf8(char const *, char const *, int)
	??1PsUiNotes@@EAE@XZ @ 76 NONAME ; PsUiNotes::~PsUiNotes(void)
	?qt_metacall@PsUiDivertNoteHandler@@UAEHW4Call@QMetaObject@@HPAPAX@Z @ 77 NONAME ; int PsUiDivertNoteHandler::qt_metacall(enum QMetaObject::Call, int, void * *)
	?qt_metacast@PsUiDivertNoteHandler@@UAEPAXPBD@Z @ 78 NONAME ; void * PsUiDivertNoteHandler::qt_metacast(char const *)
	?trUtf8@PsUiSettingsWrapper@@SA?AVQString@@PBD0@Z @ 79 NONAME ; class QString PsUiSettingsWrapper::trUtf8(char const *, char const *)
	?staticMetaObject@PsUiWaitingNoteHandler@@2UQMetaObject@@B @ 80 NONAME ; struct QMetaObject const PsUiWaitingNoteHandler::staticMetaObject
	?handleCallWaitingRequesting@PsUiWaitingNoteHandler@@QAEX_N0@Z @ 81 NONAME ; void PsUiWaitingNoteHandler::handleCallWaitingRequesting(bool, bool)
	?tr@PsUiNotes@@SA?AVQString@@PBD0H@Z @ 82 NONAME ; class QString PsUiNotes::tr(char const *, char const *, int)
	?metaObject@PsUiWaitingNoteHandler@@UBEPBUQMetaObject@@XZ @ 83 NONAME ; struct QMetaObject const * PsUiWaitingNoteHandler::metaObject(void) const
	?tr@PsUiWaitingNoteHandler@@SA?AVQString@@PBD0@Z @ 84 NONAME ; class QString PsUiWaitingNoteHandler::tr(char const *, char const *)
	?showGlobalNotificationDialog@PsUiNotes@@QAEXABVQString@@@Z @ 85 NONAME ; void PsUiNotes::showGlobalNotificationDialog(class QString const &)
	?qt_metacall@PsUiCliNoteHandler@@UAEHW4Call@QMetaObject@@HPAPAX@Z @ 86 NONAME ; int PsUiCliNoteHandler::qt_metacall(enum QMetaObject::Call, int, void * *)
	?qt_metacall@PsUiWaitingNoteHandler@@UAEHW4Call@QMetaObject@@HPAPAX@Z @ 87 NONAME ; int PsUiWaitingNoteHandler::qt_metacall(enum QMetaObject::Call, int, void * *)
	?activeNoteAboutToClose@PsUiNotes@@AAEXXZ @ 88 NONAME ; void PsUiNotes::activeNoteAboutToClose(void)
	??_EPsUiNotes@@UAE@I@Z @ 89 NONAME ; PsUiNotes::~PsUiNotes(unsigned int)
	?metaObject@PsUiSettingsWrapper@@UBEPBUQMetaObject@@XZ @ 90 NONAME ; struct QMetaObject const * PsUiSettingsWrapper::metaObject(void) const
	?metaObject@PsUiNotes@@UBEPBUQMetaObject@@XZ @ 91 NONAME ; struct QMetaObject const * PsUiNotes::metaObject(void) const
	??0PsUiDivertNoteHandler@@QAE@AAVPSetCallDivertingWrapper@@@Z @ 92 NONAME ; PsUiDivertNoteHandler::PsUiDivertNoteHandler(class PSetCallDivertingWrapper &)
	?getStaticMetaObject@PsUiCliNoteHandler@@SAABUQMetaObject@@XZ @ 93 NONAME ; struct QMetaObject const & PsUiCliNoteHandler::getStaticMetaObject(void)
	?handleCnapStatus@PsUiCliNoteHandler@@QAEXH@Z @ 94 NONAME ; void PsUiCliNoteHandler::handleCnapStatus(int)
	?showGlobalNote@PsUiNotes@@QAEXAAHABVQString@@W4MessageBoxType@HbMessageBox@@@Z @ 95 NONAME ; void PsUiNotes::showGlobalNote(int &, class QString const &, enum HbMessageBox::MessageBoxType)
	?cliInformation@PsUiCliNoteHandler@@QAEXABW4PsCallLineIdentity@@@Z @ 96 NONAME ; void PsUiCliNoteHandler::cliInformation(enum PsCallLineIdentity const &)
	?handleDivertingChanged@PsUiDivertNoteHandler@@QAEXABVPSCallDivertingCommand@@_N@Z @ 97 NONAME ; void PsUiDivertNoteHandler::handleDivertingChanged(class PSCallDivertingCommand const &, bool)
	?showGlobalProgressNote@PsUiNotes@@QAEXAAHABVQString@@@Z @ 98 NONAME ; void PsUiNotes::showGlobalProgressNote(int &, class QString const &)
	?handleCallWaitingChanged@PsUiWaitingNoteHandler@@QAEXW4PsCallWaitingCommand@PSetCallWaitingWrapper@@H@Z @ 99 NONAME ; void PsUiWaitingNoteHandler::handleCallWaitingChanged(enum PSetCallWaitingWrapper::PsCallWaitingCommand, int)
	??_EPsUiDivertNoteHandler@@UAE@I@Z @ 100 NONAME ; PsUiDivertNoteHandler::~PsUiDivertNoteHandler(unsigned int)
	?showGlobalErrorNote@PsUiNotes@@QAEXAAHH@Z @ 101 NONAME ; void PsUiNotes::showGlobalErrorNote(int &, int)
	?metaObject@PsUiDivertNoteHandler@@UBEPBUQMetaObject@@XZ @ 102 NONAME ; struct QMetaObject const * PsUiDivertNoteHandler::metaObject(void) const
	??0PsUiCliNoteHandler@@QAE@AAVPSetCliWrapper@@@Z @ 103 NONAME ; PsUiCliNoteHandler::PsUiCliNoteHandler(class PSetCliWrapper &)
	?tr@PsUiUtils@@SA?AVQString@@PBD0H@Z @ 104 NONAME ; class QString PsUiUtils::tr(char const *, char const *, int)

