EXPORTS
	?trUtf8@Dialpad@@SA?AVQString@@PBD0H@Z @ 1 NONAME ; class QString Dialpad::trUtf8(char const *, char const *, int)
	?closeAnimValueChanged@Dialpad@@IAEXM@Z @ 2 NONAME ; void Dialpad::closeAnimValueChanged(float)
	?qt_metacast@Dialpad@@UAEPAXPBD@Z @ 3 NONAME ; void * Dialpad::qt_metacast(char const *)
	?orientationChangeFinished@Dialpad@@IAEXXZ @ 4 NONAME ; void Dialpad::orientationChangeFinished(void)
	?closeEvent@Dialpad@@MAEXPAVQCloseEvent@@@Z @ 5 NONAME ; void Dialpad::closeEvent(class QCloseEvent *)
	?openDialpad@Dialpad@@QAEXXZ @ 6 NONAME ; void Dialpad::openDialpad(void)
	??0Dialpad@@QAE@XZ @ 7 NONAME ; Dialpad::Dialpad(void)
	?sceneEvent@Dialpad@@MAE_NPAVQEvent@@@Z @ 8 NONAME ; bool Dialpad::sceneEvent(class QEvent *)
	?openAnimValueChanged@Dialpad@@IAEXM@Z @ 9 NONAME ; void Dialpad::openAnimValueChanged(float)
	?handleSceneEvent@Dialpad@@IAE_NPAVQEvent@@@Z @ 10 NONAME ; bool Dialpad::handleSceneEvent(class QEvent *)
	?showEvent@Dialpad@@MAEXPAVQShowEvent@@@Z @ 11 NONAME ; void Dialpad::showEvent(class QShowEvent *)
	?metaObject@Dialpad@@UBEPBUQMetaObject@@XZ @ 12 NONAME ; struct QMetaObject const * Dialpad::metaObject(void) const
	?hideEvent@Dialpad@@MAEXPAVQHideEvent@@@Z @ 13 NONAME ; void Dialpad::hideEvent(class QHideEvent *)
	?staticMetaObject@Dialpad@@2UQMetaObject@@B @ 14 NONAME ; struct QMetaObject const Dialpad::staticMetaObject
	?tr@Dialpad@@SA?AVQString@@PBD0@Z @ 15 NONAME ; class QString Dialpad::tr(char const *, char const *)
	??1Dialpad@@UAE@XZ @ 16 NONAME ; Dialpad::~Dialpad(void)
	?getStaticMetaObject@Dialpad@@SAABUQMetaObject@@XZ @ 17 NONAME ; struct QMetaObject const & Dialpad::getStaticMetaObject(void)
	?orientationChangeStarted@Dialpad@@IAEXXZ @ 18 NONAME ; void Dialpad::orientationChangeStarted(void)
	?trUtf8@Dialpad@@SA?AVQString@@PBD0@Z @ 19 NONAME ; class QString Dialpad::trUtf8(char const *, char const *)
	?qt_metacall@Dialpad@@UAEHW4Call@QMetaObject@@HPAPAX@Z @ 20 NONAME ; int Dialpad::qt_metacall(enum QMetaObject::Call, int, void * *)
	?paint@Dialpad@@MAEXPAVQPainter@@PBVQStyleOptionGraphicsItem@@PAVQWidget@@@Z @ 21 NONAME ; void Dialpad::paint(class QPainter *, class QStyleOptionGraphicsItem const *, class QWidget *)
	?tr@Dialpad@@SA?AVQString@@PBD0H@Z @ 22 NONAME ; class QString Dialpad::tr(char const *, char const *, int)
	?sceneEventFilter@Dialpad@@MAE_NPAVQGraphicsItem@@PAVQEvent@@@Z @ 23 NONAME ; bool Dialpad::sceneEventFilter(class QGraphicsItem *, class QEvent *)
	?openAnimFinished@Dialpad@@IAEXXZ @ 24 NONAME ; void Dialpad::openAnimFinished(void)
	?setCallButtonEnabled@Dialpad@@QAEX_N@Z @ 25 NONAME ; void Dialpad::setCallButtonEnabled(bool)
	?closeDialpad@Dialpad@@QAEXXZ @ 26 NONAME ; void Dialpad::closeDialpad(void)
	??_EDialpad@@UAE@I@Z @ 27 NONAME ; Dialpad::~Dialpad(unsigned int)
	?editor@Dialpad@@QBEAAVHbLineEdit@@XZ @ 28 NONAME ; class HbLineEdit & Dialpad::editor(void) const
	?closeAnimFinished@Dialpad@@IAEXXZ @ 29 NONAME ; void Dialpad::closeAnimFinished(void)
	?aboutToClose@Dialpad@@IAEXXZ @ 30 NONAME ; void Dialpad::aboutToClose(void)

