EXPORTS
	??0RVmbxNumber@@QAE@XZ @ 1 NONAME ; RVmbxNumber::RVmbxNumber(void)
	??1RVmbxNumber@@UAE@XZ @ 2 NONAME ; RVmbxNumber::~RVmbxNumber(void)
	?AllowedToChangeTheNumber@RVmbxNumber@@QAEHXZ @ 3 NONAME ; int RVmbxNumber::AllowedToChangeTheNumber(void)
	?Close@RVmbxNumber@@QAEXXZ @ 4 NONAME ; void RVmbxNumber::Close(void)
	?GetAlsLine@RVmbxNumber@@QBEHAAH@Z @ 5 NONAME ; int RVmbxNumber::GetAlsLine(int &) const
	?GetVideoMbxNumber@RVmbxNumber@@QAEHAAVTDes16@@W4TVmbxNumberEntry@@@Z @ 6 NONAME ; int RVmbxNumber::GetVideoMbxNumber(class TDes16 &, enum TVmbxNumberEntry)
	?GetVmbxAddressL@RVmbxNumber@@QAEHAAVTDes16@@@Z @ 7 NONAME ; int RVmbxNumber::GetVmbxAddressL(class TDes16 &)
	?GetVmbxNumber@RVmbxNumber@@QAEHAAVTDes16@@W4TVmbxNumberEntry@@@Z @ 8 NONAME ; int RVmbxNumber::GetVmbxNumber(class TDes16 &, enum TVmbxNumberEntry)
	?IsSimMemory@RVmbxNumber@@QAEHXZ @ 9 NONAME ; int RVmbxNumber::IsSimMemory(void)
	?IsVoIPProfilesFound@RVmbxNumber@@QAEHXZ @ 10 NONAME ; int RVmbxNumber::IsVoIPProfilesFound(void)
	?NotifyAlsLineChangeCancel@RVmbxNumber@@QAEXXZ @ 11 NONAME ; void RVmbxNumber::NotifyAlsLineChangeCancel(void)
	?NotifyAlsLineChangeL@RVmbxNumber@@QAEXPAVMVmbxAlsObserver@@@Z @ 12 NONAME ; void RVmbxNumber::NotifyAlsLineChangeL(class MVmbxAlsObserver *)
	?NotifyVmbxNumberChangeCancel@RVmbxNumber@@QAEXXZ @ 13 NONAME ; void RVmbxNumber::NotifyVmbxNumberChangeCancel(void)
	?NotifyVmbxNumberChangeL@RVmbxNumber@@QAEXPAVMVmbxNotifyHandler@@H@Z @ 14 NONAME ; void RVmbxNumber::NotifyVmbxNumberChangeL(class MVmbxNotifyHandler *, int)
	?Open@RVmbxNumber@@QAEHAAVRMobilePhone@@@Z @ 15 NONAME ; int RVmbxNumber::Open(class RMobilePhone &)
	?Open@RVmbxNumber@@QAEHXZ @ 16 NONAME ; int RVmbxNumber::Open(void)
	?QueryAddressL@RVmbxNumber@@QAEHW4TVmbxQueryType@@AAVTDes16@@@Z @ 17 NONAME ; int RVmbxNumber::QueryAddressL(enum TVmbxQueryType, class TDes16 &)
	?QueryNumberL@RVmbxNumber@@QAEHW4TVmbxQueryType@@AAVTDes16@@H@Z @ 18 NONAME ; int RVmbxNumber::QueryNumberL(enum TVmbxQueryType, class TDes16 &, int)
	?QueryVideoMbxNumberL@RVmbxNumber@@QAEHW4TVmbxQueryType@@AAVTDes16@@@Z @ 19 NONAME ; int RVmbxNumber::QueryVideoMbxNumberL(enum TVmbxQueryType, class TDes16 &)
	?SaveVideoMbxNumber@RVmbxNumber@@QAEHABVTDesC16@@W4TVmbxNumberEntry@@@Z @ 20 NONAME ; int RVmbxNumber::SaveVideoMbxNumber(class TDesC16 const &, enum TVmbxNumberEntry)
	?SaveVmbxAddressL@RVmbxNumber@@QAEHAAVTDes16@@@Z @ 21 NONAME ; int RVmbxNumber::SaveVmbxAddressL(class TDes16 &)
	?SaveVmbxNumber@RVmbxNumber@@QAEHABVTDesC16@@W4TVmbxNumberEntry@@@Z @ 22 NONAME ; int RVmbxNumber::SaveVmbxNumber(class TDesC16 const &, enum TVmbxNumberEntry)
	?SelectTypeL@RVmbxNumber@@QAEHH@Z @ 23 NONAME ; int RVmbxNumber::SelectTypeL(int)
	?NotifyServiceChangeCancel@RVmbxNumber@@QAEXXZ @ 24 NONAME ; void RVmbxNumber::NotifyServiceChangeCancel(void)
	?SelectTypeL@RVmbxNumber@@QAEHHAAI@Z @ 25 NONAME ; int RVmbxNumber::SelectTypeL(int, unsigned int &)
	?BrandIdL@RVmbxNumber@@QAEXHAAVTDes8@@@Z @ 26 NONAME ; void RVmbxNumber::BrandIdL(int, class TDes8 &)
	?ConstructDefaultIconsL@RVmbxNumber@@QAEXPAV?$CArrayPtr@VCGulIcon@@@@@Z @ 27 NONAME ; void RVmbxNumber::ConstructDefaultIconsL(class CArrayPtr<class CGulIcon> *)
	?IsIpVoiceMailboxServices@RVmbxNumber@@QAEHXZ @ 28 NONAME ; int RVmbxNumber::IsIpVoiceMailboxServices(void)
	?NotifyServiceChange@RVmbxNumber@@QAEXPAVMServiceNotifyHandler@@@Z @ 29 NONAME ; void RVmbxNumber::NotifyServiceChange(class MServiceNotifyHandler *)
	?GetBrandedIconL@RVmbxNumber@@QAEXABVTDesC8@@AAPAVCFbsBitmap@@1@Z @ 30 NONAME ; void RVmbxNumber::GetBrandedIconL(class TDesC8 const &, class CFbsBitmap * &, class CFbsBitmap * &)
	?GetServiceInfo@RVmbxNumber@@QAEHAAVTVmbxServiceInfo@@@Z @ 31 NONAME ; int RVmbxNumber::GetServiceInfo(class TVmbxServiceInfo &)
	?GetVmbxAddress@RVmbxNumber@@QAEHAAVTDes16@@I@Z @ 32 NONAME ; int RVmbxNumber::GetVmbxAddress(class TDes16 &, unsigned int)
	?GetServiceIds@RVmbxNumber@@QAEHAAV?$RArray@I@@@Z @ 33 NONAME ; int RVmbxNumber::GetServiceIds(class RArray<unsigned int> &)

