EXPORTS
	?trUtf8@PSetCallBarringWrapper@@SA?AVQString@@PBD0H@Z @ 1 NONAME ; class QString PSetCallBarringWrapper::trUtf8(char const *, char const *, int)
	?getAvailableNetworks@PSetNetworkWrapper@@QAEXXZ @ 2 NONAME ; void PSetNetworkWrapper::getAvailableNetworks(void)
	?trUtf8@PSetWrapper@@SA?AVQString@@PBD0@Z @ 3 NONAME ; class QString PSetWrapper::trUtf8(char const *, char const *)
	?getStaticMetaObject@PSetWrapper@@SAABUQMetaObject@@XZ @ 4 NONAME ; struct QMetaObject const & PSetWrapper::getStaticMetaObject(void)
	?staticMetaObject@PSetCallWaitingWrapper@@2UQMetaObject@@B @ 5 NONAME ; struct QMetaObject const PSetCallWaitingWrapper::staticMetaObject
	?staticMetaObject@PSetWrapper@@2UQMetaObject@@B @ 6 NONAME ; struct QMetaObject const PSetWrapper::staticMetaObject
	?disableBarringRequestCompleted@PSetCallBarringWrapper@@IAEXHW4BarringType@1@W4BarringStatus@1@_N@Z @ 7 NONAME ; void PSetCallBarringWrapper::disableBarringRequestCompleted(int, enum PSetCallBarringWrapper::BarringType, enum PSetCallBarringWrapper::BarringStatus, bool)
	??_EPSetWrapper@@UAE@I@Z @ 8 NONAME ; PSetWrapper::~PSetWrapper(unsigned int)
	?trUtf8@PSetCallWaitingWrapper@@SA?AVQString@@PBD0@Z @ 9 NONAME ; class QString PSetCallWaitingWrapper::trUtf8(char const *, char const *)
	?validateDivertNumber@PSetCallDivertingWrapper@@ABEHABVTDesC16@@@Z @ 10 NONAME ; int PSetCallDivertingWrapper::validateDivertNumber(class TDesC16 const &) const
	?qt_metacast@PSetNetworkWrapper@@UAEPAXPBD@Z @ 11 NONAME ; void * PSetNetworkWrapper::qt_metacast(char const *)
	?metaObject@PSetWrapper@@UBEPBUQMetaObject@@XZ @ 12 NONAME ; struct QMetaObject const * PSetWrapper::metaObject(void) const
	?callDivertingWrapper@PSetWrapper@@QAEAAVPSetCallDivertingWrapper@@XZ @ 13 NONAME ; class PSetCallDivertingWrapper & PSetWrapper::callDivertingWrapper(void)
	?getDefaultNumbers@PSetCallDivertingWrapper@@QAEXAAVQStringList@@@Z @ 14 NONAME ; void PSetCallDivertingWrapper::getDefaultNumbers(class QStringList &)
	?getVoiceMailBoxNumber@PSetCallDivertingWrapper@@QAEXAAVQString@@@Z @ 15 NONAME ; void PSetCallDivertingWrapper::getVoiceMailBoxNumber(class QString &)
	?getCallWaitingStatus@PSetCallWaitingWrapper@@QAEXXZ @ 16 NONAME ; void PSetCallWaitingWrapper::getCallWaitingStatus(void)
	?tr@PSetCliWrapper@@SA?AVQString@@PBD0@Z @ 17 NONAME ; class QString PSetCliWrapper::tr(char const *, char const *)
	?cliInformation@PSetCliWrapper@@IAEXABW4PsCallLineIdentity@@@Z @ 18 NONAME ; void PSetCliWrapper::cliInformation(enum PsCallLineIdentity const &)
	?handleDivertingError@PSetCallDivertingWrapper@@IAEXH@Z @ 19 NONAME ; void PSetCallDivertingWrapper::handleDivertingError(int)
	?tr@PSetWrapper@@SA?AVQString@@PBD0H@Z @ 20 NONAME ; class QString PSetWrapper::tr(char const *, char const *, int)
	?staticMetaObject@PSetCliWrapper@@2UQMetaObject@@B @ 21 NONAME ; struct QMetaObject const PSetCliWrapper::staticMetaObject
	?cancelRequest@PSetNetworkWrapper@@QAEXXZ @ 22 NONAME ; void PSetNetworkWrapper::cancelRequest(void)
	?qt_metacast@PSetCallBarringWrapper@@UAEPAXPBD@Z @ 23 NONAME ; void * PSetCallBarringWrapper::qt_metacast(char const *)
	?staticMetaObject@PSetCallBarringWrapper@@2UQMetaObject@@B @ 24 NONAME ; struct QMetaObject const PSetCallBarringWrapper::staticMetaObject
	?getClipMode@PSetCliWrapper@@QAEXXZ @ 25 NONAME ; void PSetCliWrapper::getClipMode(void)
	??0PSetCallDivertingWrapper@@QAE@AAVCPsetContainer@@PAVQObject@@@Z @ 26 NONAME ; PSetCallDivertingWrapper::PSetCallDivertingWrapper(class CPsetContainer &, class QObject *)
	?metaObject@PSetCliWrapper@@UBEPBUQMetaObject@@XZ @ 27 NONAME ; struct QMetaObject const * PSetCliWrapper::metaObject(void) const
	?tr@PSetCallWaitingWrapper@@SA?AVQString@@PBD0@Z @ 28 NONAME ; class QString PSetCallWaitingWrapper::tr(char const *, char const *)
	?qt_metacast@PSetCallDivertingWrapper@@UAEPAXPBD@Z @ 29 NONAME ; void * PSetCallDivertingWrapper::qt_metacast(char const *)
	?getNetworkAccessMode@PSetNetworkWrapper@@QBEXXZ @ 30 NONAME ; void PSetNetworkWrapper::getNetworkAccessMode(void) const
	??1PSetCallWaitingWrapper@@UAE@XZ @ 31 NONAME ; PSetCallWaitingWrapper::~PSetCallWaitingWrapper(void)
	?callWaitingWrapper@PSetWrapper@@QAEAAVPSetCallWaitingWrapper@@XZ @ 32 NONAME ; class PSetCallWaitingWrapper & PSetWrapper::callWaitingWrapper(void)
	?handleCnapStatus@PSetCliWrapper@@IAEXH@Z @ 33 NONAME ; void PSetCliWrapper::handleCnapStatus(int)
	?availableNetworksGot@PSetNetworkWrapper@@IAEXAAV?$QList@PAUNetworkInfo@PSetNetworkWrapper@@@@@Z @ 34 NONAME ; void PSetNetworkWrapper::availableNetworksGot(class QList<struct PSetNetworkWrapper::NetworkInfo *> &)
	?handleCallWaitingChanged@PSetCallWaitingWrapper@@IAEXW4PsCallWaitingCommand@1@H@Z @ 35 NONAME ; void PSetCallWaitingWrapper::handleCallWaitingChanged(enum PSetCallWaitingWrapper::PsCallWaitingCommand, int)
	?metaObject@PSetCallDivertingWrapper@@UBEPBUQMetaObject@@XZ @ 36 NONAME ; struct QMetaObject const * PSetCallDivertingWrapper::metaObject(void) const
	?cancelProcess@PSetCallDivertingWrapper@@QAEXXZ @ 37 NONAME ; void PSetCallDivertingWrapper::cancelProcess(void)
	?networkWrapper@PSetWrapper@@QAEAAVPSetNetworkWrapper@@XZ @ 38 NONAME ; class PSetNetworkWrapper & PSetWrapper::networkWrapper(void)
	?getColpMode@PSetCliWrapper@@QAEXXZ @ 39 NONAME ; void PSetCliWrapper::getColpMode(void)
	?requestingSelectedNetwork@PSetNetworkWrapper@@IAEX_N@Z @ 40 NONAME ; void PSetNetworkWrapper::requestingSelectedNetwork(bool)
	?metaObject@PSetCallBarringWrapper@@UBEPBUQMetaObject@@XZ @ 41 NONAME ; struct QMetaObject const * PSetCallBarringWrapper::metaObject(void) const
	?qt_metacall@PSetNetworkWrapper@@UAEHW4Call@QMetaObject@@HPAPAX@Z @ 42 NONAME ; int PSetNetworkWrapper::qt_metacall(enum QMetaObject::Call, int, void * *)
	?handleDivertingChanged@PSetCallDivertingWrapper@@IAEXABVPSCallDivertingCommand@@_N@Z @ 43 NONAME ; void PSetCallDivertingWrapper::handleDivertingChanged(class PSCallDivertingCommand const &, bool)
	?trUtf8@PSetCallWaitingWrapper@@SA?AVQString@@PBD0H@Z @ 44 NONAME ; class QString PSetCallWaitingWrapper::trUtf8(char const *, char const *, int)
	?networkChanged@PSetNetworkWrapper@@IAEXAAUNetworkInfo@1@AAW4RegistrationStatus@1@@Z @ 45 NONAME ; void PSetNetworkWrapper::networkChanged(struct PSetNetworkWrapper::NetworkInfo &, enum PSetNetworkWrapper::RegistrationStatus &)
	?cliWrapper@PSetWrapper@@QAEAAVPSetCliWrapper@@XZ @ 46 NONAME ; class PSetCliWrapper & PSetWrapper::cliWrapper(void)
	?handleCliStatus@PSetCliWrapper@@IAEXPAEHABW4PsCallLineIdentity@@@Z @ 47 NONAME ; void PSetCliWrapper::handleCliStatus(unsigned char *, int, enum PsCallLineIdentity const &)
	?getStaticMetaObject@PSetCallBarringWrapper@@SAABUQMetaObject@@XZ @ 48 NONAME ; struct QMetaObject const & PSetCallBarringWrapper::getStaticMetaObject(void)
	?qt_metacall@PSetCallDivertingWrapper@@UAEHW4Call@QMetaObject@@HPAPAX@Z @ 49 NONAME ; int PSetCallDivertingWrapper::qt_metacall(enum QMetaObject::Call, int, void * *)
	?trUtf8@PSetCallDivertingWrapper@@SA?AVQString@@PBD0H@Z @ 50 NONAME ; class QString PSetCallDivertingWrapper::trUtf8(char const *, char const *, int)
	?getNetworkSelectionMode@PSetNetworkWrapper@@QBE?AW4ErrorCode@1@AAW4NetworkSelectionMode@1@@Z @ 51 NONAME ; enum PSetNetworkWrapper::ErrorCode PSetNetworkWrapper::getNetworkSelectionMode(enum PSetNetworkWrapper::NetworkSelectionMode &) const
	?tr@PSetNetworkWrapper@@SA?AVQString@@PBD0@Z @ 52 NONAME ; class QString PSetNetworkWrapper::tr(char const *, char const *)
	?qt_metacast@PSetCliWrapper@@UAEPAXPBD@Z @ 53 NONAME ; void * PSetCliWrapper::qt_metacast(char const *)
	?callBarringWrapper@PSetWrapper@@QAEAAVPSetCallBarringWrapper@@XZ @ 54 NONAME ; class PSetCallBarringWrapper & PSetWrapper::callBarringWrapper(void)
	?staticMetaObject@PSetCallDivertingWrapper@@2UQMetaObject@@B @ 55 NONAME ; struct QMetaObject const PSetCallDivertingWrapper::staticMetaObject
	??0PSetCliWrapper@@QAE@AAVCPsetContainer@@PAVQObject@@@Z @ 56 NONAME ; PSetCliWrapper::PSetCliWrapper(class CPsetContainer &, class QObject *)
	?trUtf8@PSetCliWrapper@@SA?AVQString@@PBD0@Z @ 57 NONAME ; class QString PSetCliWrapper::trUtf8(char const *, char const *)
	??0PSetNetworkWrapper@@QAE@AAVCPsetContainer@@PAVQObject@@@Z @ 58 NONAME ; PSetNetworkWrapper::PSetNetworkWrapper(class CPsetContainer &, class QObject *)
	?tr@PSetCallBarringWrapper@@SA?AVQString@@PBD0H@Z @ 59 NONAME ; class QString PSetCallBarringWrapper::tr(char const *, char const *, int)
	?qt_metacall@PSetCallWaitingWrapper@@UAEHW4Call@QMetaObject@@HPAPAX@Z @ 60 NONAME ; int PSetCallWaitingWrapper::qt_metacall(enum QMetaObject::Call, int, void * *)
	?networkAccessModeGot@PSetNetworkWrapper@@IAEXH@Z @ 61 NONAME ; void PSetNetworkWrapper::networkAccessModeGot(int)
	?searchingNetworks@PSetNetworkWrapper@@IAEXAAW4RequestType@1@@Z @ 62 NONAME ; void PSetNetworkWrapper::searchingNetworks(enum PSetNetworkWrapper::RequestType &)
	??_EPSetCallBarringWrapper@@UAE@I@Z @ 63 NONAME ; PSetCallBarringWrapper::~PSetCallBarringWrapper(unsigned int)
	?trUtf8@PSetNetworkWrapper@@SA?AVQString@@PBD0@Z @ 64 NONAME ; class QString PSetNetworkWrapper::trUtf8(char const *, char const *)
	?handleDivertingStatus@PSetCallDivertingWrapper@@IAEXAAV?$QList@PAVPSCallDivertingStatus@@@@_N@Z @ 65 NONAME ; void PSetCallDivertingWrapper::handleDivertingStatus(class QList<class PSCallDivertingStatus *> &, bool)
	?getClirMode@PSetCliWrapper@@QAEXXZ @ 66 NONAME ; void PSetCliWrapper::getClirMode(void)
	?getStaticMetaObject@PSetCliWrapper@@SAABUQMetaObject@@XZ @ 67 NONAME ; struct QMetaObject const & PSetCliWrapper::getStaticMetaObject(void)
	??1PSetCallDivertingWrapper@@UAE@XZ @ 68 NONAME ; PSetCallDivertingWrapper::~PSetCallDivertingWrapper(void)
	?selectNetwork@PSetNetworkWrapper@@QAEXABUNetworkInfo@1@@Z @ 69 NONAME ; void PSetNetworkWrapper::selectNetwork(struct PSetNetworkWrapper::NetworkInfo const &)
	?qt_metacall@PSetWrapper@@UAEHW4Call@QMetaObject@@HPAPAX@Z @ 70 NONAME ; int PSetWrapper::qt_metacall(enum QMetaObject::Call, int, void * *)
	?trUtf8@PSetNetworkWrapper@@SA?AVQString@@PBD0H@Z @ 71 NONAME ; class QString PSetNetworkWrapper::trUtf8(char const *, char const *, int)
	?trUtf8@PSetCallDivertingWrapper@@SA?AVQString@@PBD0@Z @ 72 NONAME ; class QString PSetCallDivertingWrapper::trUtf8(char const *, char const *)
	?tr@PSetCallDivertingWrapper@@SA?AVQString@@PBD0H@Z @ 73 NONAME ; class QString PSetCallDivertingWrapper::tr(char const *, char const *, int)
	?handleCliRequesting@PSetCliWrapper@@IAEX_N0@Z @ 74 NONAME ; void PSetCliWrapper::handleCliRequesting(bool, bool)
	?handleCallWaitingError@PSetCallWaitingWrapper@@IAEXH@Z @ 75 NONAME ; void PSetCallWaitingWrapper::handleCallWaitingError(int)
	?enableBarringRequestCompleted@PSetCallBarringWrapper@@IAEXHW4BarringType@1@W4BarringStatus@1@_N@Z @ 76 NONAME ; void PSetCallBarringWrapper::enableBarringRequestCompleted(int, enum PSetCallBarringWrapper::BarringType, enum PSetCallBarringWrapper::BarringStatus, bool)
	?getStaticMetaObject@PSetCallWaitingWrapper@@SAABUQMetaObject@@XZ @ 77 NONAME ; struct QMetaObject const & PSetCallWaitingWrapper::getStaticMetaObject(void)
	?disableBarring@PSetCallBarringWrapper@@QAEXV?$QFlags@W4PsService@@@@W4BarringType@1@VQString@@@Z @ 78 NONAME ; void PSetCallBarringWrapper::disableBarring(class QFlags<enum PsService>, enum PSetCallBarringWrapper::BarringType, class QString)
	?metaObject@PSetCallWaitingWrapper@@UBEPBUQMetaObject@@XZ @ 79 NONAME ; struct QMetaObject const * PSetCallWaitingWrapper::metaObject(void) const
	?trUtf8@PSetWrapper@@SA?AVQString@@PBD0H@Z @ 80 NONAME ; class QString PSetWrapper::trUtf8(char const *, char const *, int)
	?getCallDivertingStatus@PSetCallDivertingWrapper@@QAEXV?$QFlags@W4PsService@@@@W4PsCallDivertingCondition@@H@Z @ 81 NONAME ; void PSetCallDivertingWrapper::getCallDivertingStatus(class QFlags<enum PsService>, enum PsCallDivertingCondition, int)
	?tr@PSetWrapper@@SA?AVQString@@PBD0@Z @ 82 NONAME ; class QString PSetWrapper::tr(char const *, char const *)
	?setNetworkAccessMode@PSetNetworkWrapper@@QAEXW4NetworkAccessMode@1@@Z @ 83 NONAME ; void PSetNetworkWrapper::setNetworkAccessMode(enum PSetNetworkWrapper::NetworkAccessMode)
	?setCallDiverting@PSetCallDivertingWrapper@@QAEHAAVPSCallDivertingCommand@@H@Z @ 84 NONAME ; int PSetCallDivertingWrapper::setCallDiverting(class PSCallDivertingCommand &, int)
	??1PSetCliWrapper@@UAE@XZ @ 85 NONAME ; PSetCliWrapper::~PSetCliWrapper(void)
	?getColrMode@PSetCliWrapper@@QAEXXZ @ 86 NONAME ; void PSetCliWrapper::getColrMode(void)
	??0PSetWrapper@@QAE@PAVQObject@@@Z @ 87 NONAME ; PSetWrapper::PSetWrapper(class QObject *)
	?qt_metacall@PSetCliWrapper@@UAEHW4Call@QMetaObject@@HPAPAX@Z @ 88 NONAME ; int PSetCliWrapper::qt_metacall(enum QMetaObject::Call, int, void * *)
	?handleCallWaitingRequesting@PSetCallWaitingWrapper@@IAEX_N0@Z @ 89 NONAME ; void PSetCallWaitingWrapper::handleCallWaitingRequesting(bool, bool)
	?trUtf8@PSetCallBarringWrapper@@SA?AVQString@@PBD0@Z @ 90 NONAME ; class QString PSetCallBarringWrapper::trUtf8(char const *, char const *)
	?handleCliError@PSetCliWrapper@@IAEXH@Z @ 91 NONAME ; void PSetCliWrapper::handleCliError(int)
	?cancelAll@PSetCliWrapper@@QAEXXZ @ 92 NONAME ; void PSetCliWrapper::cancelAll(void)
	?barringStatus@PSetCallBarringWrapper@@QAEXV?$QFlags@W4PsService@@@@W4BarringType@1@@Z @ 93 NONAME ; void PSetCallBarringWrapper::barringStatus(class QFlags<enum PsService>, enum PSetCallBarringWrapper::BarringType)
	??1PSetWrapper@@UAE@XZ @ 94 NONAME ; PSetWrapper::~PSetWrapper(void)
	?handleCFRequesting@PSetCallDivertingWrapper@@IAEX_N0@Z @ 95 NONAME ; void PSetCallDivertingWrapper::handleCFRequesting(bool, bool)
	?networkReqestFailed@PSetNetworkWrapper@@IAEXW4ErrorCode@1@W4RequestType@1@@Z @ 96 NONAME ; void PSetNetworkWrapper::networkReqestFailed(enum PSetNetworkWrapper::ErrorCode, enum PSetNetworkWrapper::RequestType)
	?cancelProcess@PSetCallWaitingWrapper@@QAEXXZ @ 97 NONAME ; void PSetCallWaitingWrapper::cancelProcess(void)
	?enableBarring@PSetCallBarringWrapper@@QAEXV?$QFlags@W4PsService@@@@W4BarringType@1@VQString@@@Z @ 98 NONAME ; void PSetCallBarringWrapper::enableBarring(class QFlags<enum PsService>, enum PSetCallBarringWrapper::BarringType, class QString)
	?setNewDefaultNumber@PSetCallDivertingWrapper@@QAEXVQString@@@Z @ 99 NONAME ; void PSetCallDivertingWrapper::setNewDefaultNumber(class QString)
	?findPlus@PSetCallDivertingWrapper@@ABE_NABVTDesC16@@@Z @ 100 NONAME ; bool PSetCallDivertingWrapper::findPlus(class TDesC16 const &) const
	??0PSetCallBarringWrapper@@QAE@AAVCPsetContainer@@PAVQObject@@@Z @ 101 NONAME ; PSetCallBarringWrapper::PSetCallBarringWrapper(class CPsetContainer &, class QObject *)
	?barringStatusRequestCompleted@PSetCallBarringWrapper@@IAEXHABV?$QList@E@@W4BarringStatus@1@@Z @ 102 NONAME ; void PSetCallBarringWrapper::barringStatusRequestCompleted(int, class QList<unsigned char> const &, enum PSetCallBarringWrapper::BarringStatus)
	??_EPSetNetworkWrapper@@UAE@I@Z @ 103 NONAME ; PSetNetworkWrapper::~PSetNetworkWrapper(unsigned int)
	??_EPSetCallDivertingWrapper@@UAE@I@Z @ 104 NONAME ; PSetCallDivertingWrapper::~PSetCallDivertingWrapper(unsigned int)
	?setCallWaiting@PSetCallWaitingWrapper@@QAEXW4PsCallWaitingCommand@1@H@Z @ 105 NONAME ; void PSetCallWaitingWrapper::setCallWaiting(enum PSetCallWaitingWrapper::PsCallWaitingCommand, int)
	??_EPSetCliWrapper@@UAE@I@Z @ 106 NONAME ; PSetCliWrapper::~PSetCliWrapper(unsigned int)
	?tr@PSetCallBarringWrapper@@SA?AVQString@@PBD0@Z @ 107 NONAME ; class QString PSetCallBarringWrapper::tr(char const *, char const *)
	?trUtf8@PSetCliWrapper@@SA?AVQString@@PBD0H@Z @ 108 NONAME ; class QString PSetCliWrapper::trUtf8(char const *, char const *, int)
	?handleCallWaitingGetStatus@PSetCallWaitingWrapper@@IAEXW4PsCallWaitingStatus@1@ABV?$QList@E@@@Z @ 109 NONAME ; void PSetCallWaitingWrapper::handleCallWaitingGetStatus(enum PSetCallWaitingWrapper::PsCallWaitingStatus, class QList<unsigned char> const &)
	?tr@PSetCallDivertingWrapper@@SA?AVQString@@PBD0@Z @ 110 NONAME ; class QString PSetCallDivertingWrapper::tr(char const *, char const *)
	?requestDone@PSetCallDivertingWrapper@@IAEXXZ @ 111 NONAME ; void PSetCallDivertingWrapper::requestDone(void)
	?qt_metacast@PSetWrapper@@UAEPAXPBD@Z @ 112 NONAME ; void * PSetWrapper::qt_metacast(char const *)
	??1PSetCallBarringWrapper@@UAE@XZ @ 113 NONAME ; PSetCallBarringWrapper::~PSetCallBarringWrapper(void)
	?getCnap@PSetCliWrapper@@QAEXXZ @ 114 NONAME ; void PSetCliWrapper::getCnap(void)
	?tr@PSetCliWrapper@@SA?AVQString@@PBD0H@Z @ 115 NONAME ; class QString PSetCliWrapper::tr(char const *, char const *, int)
	?metaObject@PSetNetworkWrapper@@UBEPBUQMetaObject@@XZ @ 116 NONAME ; struct QMetaObject const * PSetNetworkWrapper::metaObject(void) const
	?getStaticMetaObject@PSetCallDivertingWrapper@@SAABUQMetaObject@@XZ @ 117 NONAME ; struct QMetaObject const & PSetCallDivertingWrapper::getStaticMetaObject(void)
	?tr@PSetNetworkWrapper@@SA?AVQString@@PBD0H@Z @ 118 NONAME ; class QString PSetNetworkWrapper::tr(char const *, char const *, int)
	?staticMetaObject@PSetNetworkWrapper@@2UQMetaObject@@B @ 119 NONAME ; struct QMetaObject const PSetNetworkWrapper::staticMetaObject
	?qt_metacast@PSetCallWaitingWrapper@@UAEPAXPBD@Z @ 120 NONAME ; void * PSetCallWaitingWrapper::qt_metacast(char const *)
	??1PSetNetworkWrapper@@UAE@XZ @ 121 NONAME ; PSetNetworkWrapper::~PSetNetworkWrapper(void)
	?tr@PSetCallWaitingWrapper@@SA?AVQString@@PBD0H@Z @ 122 NONAME ; class QString PSetCallWaitingWrapper::tr(char const *, char const *, int)
	?qt_metacall@PSetCallBarringWrapper@@UAEHW4Call@QMetaObject@@HPAPAX@Z @ 123 NONAME ; int PSetCallBarringWrapper::qt_metacall(enum QMetaObject::Call, int, void * *)
	??0PSetCallWaitingWrapper@@QAE@AAVCPsetContainer@@PAVQObject@@@Z @ 124 NONAME ; PSetCallWaitingWrapper::PSetCallWaitingWrapper(class CPsetContainer &, class QObject *)
	??_EPSetCallWaitingWrapper@@UAE@I@Z @ 125 NONAME ; PSetCallWaitingWrapper::~PSetCallWaitingWrapper(unsigned int)
	?getStaticMetaObject@PSetNetworkWrapper@@SAABUQMetaObject@@XZ @ 126 NONAME ; struct QMetaObject const & PSetNetworkWrapper::getStaticMetaObject(void)

