EXPORTS
	?GetBarringStatusL@CPsetCallBarring@@UAEXW4TServiceGroup@@W4TBarringProgram@@@Z @ 1 NONAME ; void CPsetCallBarring::GetBarringStatusL(enum TServiceGroup, enum TBarringProgram)
	?SetNetworkModeSelectionL@CPsetNetwork@@UAEXAAK@Z @ 2 NONAME ; void CPsetNetwork::SetNetworkModeSelectionL(unsigned long &)
	?GetColpModeL@CPsetCli@@UAEXXZ @ 3 NONAME ; void CPsetCli::GetColpModeL(void)
	?CreateCBObjectL@CPsetContainer@@QAEPAVCPsetCallBarring@@AAVMPsetBarringObserver@@@Z @ 4 NONAME ; class CPsetCallBarring * CPsetContainer::CreateCBObjectL(class MPsetBarringObserver &)
	?SetRequestObserver@CPsetCallBarring@@QAEXPAVMPsetRequestObserver@@@Z @ 5 NONAME ; void CPsetCallBarring::SetRequestObserver(class MPsetRequestObserver *)
	?IsCallActive@CPsetNetwork@@QAEHXZ @ 6 NONAME ; int CPsetNetwork::IsCallActive(void)
	?GetCurrentNetworkInfo@CPsetNetwork@@UAEHAAUTCurrentNetworkInfo@MPsetNetworkSelect@@@Z @ 7 NONAME ; int CPsetNetwork::GetCurrentNetworkInfo(struct MPsetNetworkSelect::TCurrentNetworkInfo &)
	?GetCnapL@CPsetCli@@UAEXXZ @ 8 NONAME ; void CPsetCli::GetCnapL(void)
	?SelectNetworkL@CPsetNetwork@@UAEXABUTNetworkInfo@MPsetNetworkSelect@@@Z @ 9 NONAME ; void CPsetNetwork::SelectNetworkL(struct MPsetNetworkSelect::TNetworkInfo const &)
	?NewL@CPsetNetwork@@SAPAV1@AAVRMobilePhone@@AAVMPsetNetworkInfoObserver@@@Z @ 10 NONAME ; class CPsetNetwork * CPsetNetwork::NewL(class RMobilePhone &, class MPsetNetworkInfoObserver &)
	?GetNetworkSelectMode@CPsetNetwork@@UAEHAAW4TSelectMode@MPsetNetworkSelect@@@Z @ 11 NONAME ; int CPsetNetwork::GetNetworkSelectMode(enum MPsetNetworkSelect::TSelectMode &)
	?SwapDefaultNumberL@CPsetCallDiverting@@QAEXABH@Z @ 12 NONAME ; void CPsetCallDiverting::SwapDefaultNumberL(int const &)
	?VideoMailQueryL@CPsetCallDiverting@@QAEXAAVTDes16@@@Z @ 13 NONAME ; void CPsetCallDiverting::VideoMailQueryL(class TDes16 &)
	?SetBarringL@CPsetCallBarring@@UAEXABVTCallBarringSetting@@W4TBasicServiceGroups@@@Z @ 14 NONAME ; void CPsetCallBarring::SetBarringL(class TCallBarringSetting const &, enum TBasicServiceGroups)
	?IsCallActive@CPsetSAObserver@@QAEHXZ @ 15 NONAME ; int CPsetSAObserver::IsCallActive(void)
	??1CPsetCallWaiting@@UAE@XZ @ 16 NONAME ; CPsetCallWaiting::~CPsetCallWaiting(void)
	?ChangePasswordL@CPsetCallBarring@@QAEXAAVTMobilePhonePasswordChangeV2@RMobilePhone@@@Z @ 17 NONAME ; void CPsetCallBarring::ChangePasswordL(class RMobilePhone::TMobilePhonePasswordChangeV2 &)
	?CreateCliObjectL@CPsetContainer@@QAEPAVCPsetCli@@AAVMPsetCliObserver@@@Z @ 18 NONAME ; class CPsetCli * CPsetContainer::CreateCliObjectL(class MPsetCliObserver &)
	?VoiceMailQueryL@CPsetCallDiverting@@QAEXAAVTDes16@@@Z @ 19 NONAME ; void CPsetCallDiverting::VoiceMailQueryL(class TDes16 &)
	??1CPsetContainer@@UAE@XZ @ 20 NONAME ; CPsetContainer::~CPsetContainer(void)
	?NewL@CPsetNetwork@@SAPAV1@AAVRMobilePhone@@AAVMPsetNetworkModeObserver@@@Z @ 21 NONAME ; class CPsetNetwork * CPsetNetwork::NewL(class RMobilePhone &, class MPsetNetworkModeObserver &)
	?GetDefaultNumbersL@CPsetCallDiverting@@QAEHAAVCDesC16ArrayFlat@@@Z @ 22 NONAME ; int CPsetCallDiverting::GetDefaultNumbersL(class CDesC16ArrayFlat &)
	?NewL@CPsetContainer@@SAPAV1@XZ @ 23 NONAME ; class CPsetContainer * CPsetContainer::NewL(void)
	?CreateCFObjectL@CPsetContainer@@QAEPAVCPsetCallDiverting@@AAVMPsetDivertObserver@@@Z @ 24 NONAME ; class CPsetCallDiverting * CPsetContainer::CreateCFObjectL(class MPsetDivertObserver &)
	?IsGPRSConnected@CPsetSAObserver@@QAEHXZ @ 25 NONAME ; int CPsetSAObserver::IsGPRSConnected(void)
	?IsNetworkSelectionSupported@CPsetCustomerServiceProfile@@QAEHAAH@Z @ 26 NONAME ; int CPsetCustomerServiceProfile::IsNetworkSelectionSupported(int &)
	?GetCurrentDivertStatus@CPsetSAObserver@@QAEHAAW4TUnconditionalCFStatus@@@Z @ 27 NONAME ; int CPsetSAObserver::GetCurrentDivertStatus(enum TUnconditionalCFStatus &)
	??1CPsetCallDiverting@@UAE@XZ @ 28 NONAME ; CPsetCallDiverting::~CPsetCallDiverting(void)
	?OpenCSProfileL@CPsetCustomerServiceProfile@@QAEHXZ @ 29 NONAME ; int CPsetCustomerServiceProfile::OpenCSProfileL(void)
	??1CPsetSAObserver@@UAE@XZ @ 30 NONAME ; CPsetSAObserver::~CPsetSAObserver(void)
	?IsCFSupported@CPsetCustomerServiceProfile@@QAEHAAH@Z @ 31 NONAME ; int CPsetCustomerServiceProfile::IsCFSupported(int &)
	?GetDivertingStatusL@CPsetCallDiverting@@UAEXW4TServiceGroup@@W4TCallDivertingCondition@@W4TBasicServiceGroups@@@Z @ 32 NONAME ; void CPsetCallDiverting::GetDivertingStatusL(enum TServiceGroup, enum TCallDivertingCondition, enum TBasicServiceGroups)
	?NewL@CPsetCallDiverting@@SAPAV1@AAVMPsetDivertObserver@@AAVRMobilePhone@@@Z @ 33 NONAME ; class CPsetCallDiverting * CPsetCallDiverting::NewL(class MPsetDivertObserver &, class RMobilePhone &)
	?SetUsedDataNumberL@CPsetCallDiverting@@QAEHAAV?$TBuf@$0GE@@@@Z @ 34 NONAME ; int CPsetCallDiverting::SetUsedDataNumberL(class TBuf<100> &)
	?CreateNetworkModeObjectL@CPsetContainer@@QAEPAVCPsetNetwork@@AAVMPsetNetworkModeObserver@@@Z @ 35 NONAME ; class CPsetNetwork * CPsetContainer::CreateNetworkModeObjectL(class MPsetNetworkModeObserver &)
	?GetCallWaitingStatusL@CPsetCallWaiting@@UAEXXZ @ 36 NONAME ; void CPsetCallWaiting::GetCallWaitingStatusL(void)
	?ResetNetworkSearch@CPsetNetwork@@QAEHXZ @ 37 NONAME ; int CPsetNetwork::ResetNetworkSearch(void)
	?GetAvailableNetworksL@CPsetNetwork@@UAEXXZ @ 38 NONAME ; void CPsetNetwork::GetAvailableNetworksL(void)
	?SetNewDefaultNumberL@CPsetCallDiverting@@QAEHAAVTDes16@@@Z @ 39 NONAME ; int CPsetCallDiverting::SetNewDefaultNumberL(class TDes16 &)
	?CreateCWObjectL@CPsetContainer@@QAEPAVCPsetCallWaiting@@AAVMPsetCallWaitingObserver@@@Z @ 40 NONAME ; class CPsetCallWaiting * CPsetContainer::CreateCWObjectL(class MPsetCallWaitingObserver &)
	??1CPsetCli@@UAE@XZ @ 41 NONAME ; CPsetCli::~CPsetCli(void)
	?CreateNetworkObjectL@CPsetContainer@@QAEPAVCPsetNetwork@@AAVMPsetNetworkInfoObserver@@@Z @ 42 NONAME ; class CPsetNetwork * CPsetContainer::CreateNetworkObjectL(class MPsetNetworkInfoObserver &)
	?SetUsedFaxNumberL@CPsetCallDiverting@@QAEHAAV?$TBuf@$0GE@@@@Z @ 43 NONAME ; int CPsetCallDiverting::SetUsedFaxNumberL(class TBuf<100> &)
	?CancelCurrentRequest@CPsetCallBarring@@UAEHXZ @ 44 NONAME ; int CPsetCallBarring::CancelCurrentRequest(void)
	?NewL@CPsetCli@@SAPAV1@AAVRMobilePhone@@AAVMPsetCliObserver@@@Z @ 45 NONAME ; class CPsetCli * CPsetCli::NewL(class RMobilePhone &, class MPsetCliObserver &)
	?NotifyDivertChange@CPsetSAObserver@@QAEXW4TSelectedLine@@AAVTCallDivertNotifySetting@@ABH@Z @ 46 NONAME ; void CPsetSAObserver::NotifyDivertChange(enum TSelectedLine, class TCallDivertNotifySetting &, int const &)
	?GetCurrentNetworkModeSelectionL@CPsetNetwork@@UAEXXZ @ 47 NONAME ; void CPsetNetwork::GetCurrentNetworkModeSelectionL(void)
	?GetUsedFaxNumberLC@CPsetCallDiverting@@QAEPAVHBufC16@@XZ @ 48 NONAME ; class HBufC16 * CPsetCallDiverting::GetUsedFaxNumberLC(void)
	?SetNetSAObserver@CPsetNetwork@@QAEXAAVMPsetNetworkInfoObserver@@@Z @ 49 NONAME ; void CPsetNetwork::SetNetSAObserver(class MPsetNetworkInfoObserver &)
	?NewL@CPsetCustomerServiceProfile@@SAPAV1@XZ @ 50 NONAME ; class CPsetCustomerServiceProfile * CPsetCustomerServiceProfile::NewL(void)
	?SetNetworkModeObserver@CPsetNetwork@@QAEXAAVMPsetNetworkModeObserver@@@Z @ 51 NONAME ; void CPsetNetwork::SetNetworkModeObserver(class MPsetNetworkModeObserver &)
	?NewL@CPsetCallWaiting@@SAPAV1@AAVRMobilePhone@@AAVMPsetCallWaitingObserver@@@Z @ 52 NONAME ; class CPsetCallWaiting * CPsetCallWaiting::NewL(class RMobilePhone &, class MPsetCallWaitingObserver &)
	?SetRequestObserver@CPsetCallDiverting@@QAEXPAVMPsetRequestObserver@@@Z @ 53 NONAME ; void CPsetCallDiverting::SetRequestObserver(class MPsetRequestObserver *)
	?CancelCurrentRequest@CPsetCallDiverting@@UAEHXZ @ 54 NONAME ; int CPsetCallDiverting::CancelCurrentRequest(void)
	??1CPsetCallBarring@@UAE@XZ @ 55 NONAME ; CPsetCallBarring::~CPsetCallBarring(void)
	?GetClirModeL@CPsetCli@@UAEXXZ @ 56 NONAME ; void CPsetCli::GetClirModeL(void)
	?SetDivertingL@CPsetCallDiverting@@UAEXABVTCallDivertSetting@@W4TBasicServiceGroups@@H@Z @ 57 NONAME ; void CPsetCallDiverting::SetDivertingL(class TCallDivertSetting const &, enum TBasicServiceGroups, int)
	?CreateRefreshHandlerL@CPsetContainer@@QAEPAVCPSetRefreshHandler@@XZ @ 58 NONAME ; class CPSetRefreshHandler * CPsetContainer::CreateRefreshHandlerL(void)
	?SetRequestObserver@CPsetCallWaiting@@QAEXPAVMPsetRequestObserver@@@Z @ 59 NONAME ; void CPsetCallWaiting::SetRequestObserver(class MPsetRequestObserver *)
	?CancelProcess@CPsetNetwork@@UAEXXZ @ 60 NONAME ; void CPsetNetwork::CancelProcess(void)
	?IsALSSupported@CPsetCustomerServiceProfile@@QAEHAAH@Z @ 61 NONAME ; int CPsetCustomerServiceProfile::IsALSSupported(int &)
	?SetNetObserver@CPsetSAObserver@@QAEXAAVMPsetNetworkInfoObserver@@@Z @ 62 NONAME ; void CPsetSAObserver::SetNetObserver(class MPsetNetworkInfoObserver &)
	?SetRequestObserver@CPsetCli@@QAEXPAVMPsetRequestObserver@@@Z @ 63 NONAME ; void CPsetCli::SetRequestObserver(class MPsetRequestObserver *)
	?NewL@CPsetSAObserver@@SAPAV1@XZ @ 64 NONAME ; class CPsetSAObserver * CPsetSAObserver::NewL(void)
	?CancelAll@CPsetCli@@UAEXXZ @ 65 NONAME ; void CPsetCli::CancelAll(void)
	?ChangePasswordL@CPsetCallBarring@@QAEXAAVTMobilePhonePasswordChangeV2@RMobilePhone@@H@Z @ 66 NONAME ; void CPsetCallBarring::ChangePasswordL(class RMobilePhone::TMobilePhonePasswordChangeV2 &, int)
	?SetTimerValueL@CPsetCallDiverting@@QAEHABH@Z @ 67 NONAME ; int CPsetCallDiverting::SetTimerValueL(int const &)
	??1CPsetCustomerServiceProfile@@UAE@XZ @ 68 NONAME ; CPsetCustomerServiceProfile::~CPsetCustomerServiceProfile(void)
	?GetUsedDataNumberLC@CPsetCallDiverting@@QAEPAVHBufC16@@XZ @ 69 NONAME ; class HBufC16 * CPsetCallDiverting::GetUsedDataNumberLC(void)
	?GetClipModeL@CPsetCli@@UAEXXZ @ 70 NONAME ; void CPsetCli::GetClipModeL(void)
	?CancelProcess@CPsetCallWaiting@@UAEHXZ @ 71 NONAME ; int CPsetCallWaiting::CancelProcess(void)
	?IsGPRSConnected@CPsetNetwork@@QAEHXZ @ 72 NONAME ; int CPsetNetwork::IsGPRSConnected(void)
	?GetColrModeL@CPsetCli@@UAEXXZ @ 73 NONAME ; void CPsetCli::GetColrModeL(void)
	?IsCBSupported@CPsetCustomerServiceProfile@@QAEHAAH@Z @ 74 NONAME ; int CPsetCustomerServiceProfile::IsCBSupported(int &)
	??1CPsetNetwork@@UAE@XZ @ 75 NONAME ; CPsetNetwork::~CPsetNetwork(void)
	?SetCallWaitingL@CPsetCallWaiting@@UAEXW4TSetCallWaiting@MPsetCallWaiting@@W4TBasicServiceGroups@@@Z @ 76 NONAME ; void CPsetCallWaiting::SetCallWaitingL(enum MPsetCallWaiting::TSetCallWaiting, enum TBasicServiceGroups)
	?GetTimerValueL@CPsetCallDiverting@@QAEHXZ @ 77 NONAME ; int CPsetCallDiverting::GetTimerValueL(void)
	?IsCWSupported@CPsetCustomerServiceProfile@@QAEHAAH@Z @ 78 NONAME ; int CPsetCustomerServiceProfile::IsCWSupported(int &)

