EXPORTS
	_ZN7Dialpad10closeEventEP11QCloseEvent @ 1 NONAME
	_ZN7Dialpad10sceneEventEP6QEvent @ 2 NONAME
	_ZN7Dialpad11openDialpadEv @ 3 NONAME
	_ZN7Dialpad11qt_metacallEN11QMetaObject4CallEiPPv @ 4 NONAME
	_ZN7Dialpad11qt_metacastEPKc @ 5 NONAME
	_ZN7Dialpad12aboutToCloseEv @ 6 NONAME
	_ZN7Dialpad12closeDialpadEv @ 7 NONAME
	_ZN7Dialpad16handleSceneEventEP6QEvent @ 8 NONAME
	_ZN7Dialpad16openAnimFinishedEv @ 9 NONAME
	_ZN7Dialpad16sceneEventFilterEP13QGraphicsItemP6QEvent @ 10 NONAME
	_ZN7Dialpad16staticMetaObjectE @ 11 NONAME DATA 16
	_ZN7Dialpad17closeAnimFinishedEv @ 12 NONAME
	_ZN7Dialpad19getStaticMetaObjectEv @ 13 NONAME
	_ZN7Dialpad20openAnimValueChangedEf @ 14 NONAME
	_ZN7Dialpad20setCallButtonEnabledEb @ 15 NONAME
	_ZN7Dialpad21closeAnimValueChangedEf @ 16 NONAME
	_ZN7Dialpad24orientationChangeStartedEv @ 17 NONAME
	_ZN7Dialpad25orientationChangeFinishedEv @ 18 NONAME
	_ZN7Dialpad5paintEP8QPainterPK24QStyleOptionGraphicsItemP7QWidget @ 19 NONAME
	_ZN7Dialpad9hideEventEP10QHideEvent @ 20 NONAME
	_ZN7Dialpad9showEventEP10QShowEvent @ 21 NONAME
	_ZN7DialpadC1Ev @ 22 NONAME
	_ZN7DialpadC2Ev @ 23 NONAME
	_ZN7DialpadD0Ev @ 24 NONAME
	_ZN7DialpadD1Ev @ 25 NONAME
	_ZN7DialpadD2Ev @ 26 NONAME
	_ZNK7Dialpad10metaObjectEv @ 27 NONAME
	_ZNK7Dialpad6editorEv @ 28 NONAME
	_ZTI7Dialpad @ 29 NONAME
	_ZTV7Dialpad @ 30 NONAME
	_ZThn16_N7DialpadD0Ev @ 31 NONAME
	_ZThn16_N7DialpadD1Ev @ 32 NONAME
	_ZThn8_N7Dialpad10sceneEventEP6QEvent @ 33 NONAME
	_ZThn8_N7Dialpad16sceneEventFilterEP13QGraphicsItemP6QEvent @ 34 NONAME
	_ZThn8_N7Dialpad5paintEP8QPainterPK24QStyleOptionGraphicsItemP7QWidget @ 35 NONAME
	_ZThn8_N7DialpadD0Ev @ 36 NONAME
	_ZThn8_N7DialpadD1Ev @ 37 NONAME

